target datalayout = "e-m:e-p270:32:32-p271:32:32-p272:64:64-i64:64-i128:128-f80:128-n8:16:32:64-S128"
target triple = "x86_64-pc-linux-gnu"

%struct.ossl_quic_frame_stream_st = type { i64, i64, i64, ptr, i8 }

@.str.5 = private unnamed_addr constant [33 x i8] c"../openssl/test/quic_wire_test.c\00", align 1
@.str.8 = private unnamed_addr constant [2 x i8] c"1\00", align 1
@.str.23 = private unnamed_addr constant [9 x i8] c"fail < 0\00", align 1
@.str.32 = private unnamed_addr constant [9 x i8] c"SIZE_MAX\00", align 1
@.str.54 = private unnamed_addr constant [9 x i8] c"f.offset\00", align 1
@.str.55 = private unnamed_addr constant [7 x i8] c"0x1234\00", align 1
@.str.56 = private unnamed_addr constant [6 x i8] c"f.len\00", align 1
@.str.57 = private unnamed_addr constant [7 x i8] c"f.data\00", align 1
@.str.65 = private unnamed_addr constant [47 x i8] c"ossl_quic_wire_decode_frame_stream(pkt, 0, &f)\00", align 1
@.str.67 = private unnamed_addr constant [12 x i8] c"f.stream_id\00", align 1
@.str.69 = private unnamed_addr constant [19 x i8] c"f.has_explicit_len\00", align 1
@.str.70 = private unnamed_addr constant [9 x i8] c"f.is_fin\00", align 1
@encode_case_9_data = internal constant [5 x i8] c"\DE\06\CBv]", align 1
@.str.73 = private unnamed_addr constant [19 x i8] c"encode_case_9_data\00", align 1
@.str.74 = private unnamed_addr constant [5 x i8] c"0x39\00", align 1

; Function Attrs: nounwind uwtable
define internal i32 @encode_case_9_dec(ptr noundef %0, i64 noundef %1) #0 {
  %3 = alloca i32, align 4
  %4 = alloca ptr, align 8
  %5 = alloca i64, align 8
  %6 = alloca %struct.ossl_quic_frame_stream_st, align 8
  %7 = alloca i32, align 4
  store ptr %0, ptr %4, align 8, !tbaa !40
  store i64 %1, ptr %5, align 8, !tbaa !19
  call void @llvm.lifetime.start.p0(i64 40, ptr %6) #5
  call void @llvm.memset.p0.i64(ptr align 8 %6, i8 0, i64 40, i1 false)
  %8 = load ptr, ptr %4, align 8, !tbaa !40
  %9 = call i32 @ossl_quic_wire_decode_frame_stream(ptr noundef %8, i32 noundef 0, ptr noundef %6)
  %10 = load i64, ptr %5, align 8, !tbaa !19
  %11 = icmp slt i64 %10, 0
  %12 = zext i1 %11 to i32
  %13 = call i32 @test_int_eq(ptr noundef @.str.5, i32 noundef 416, ptr noundef @.str.65, ptr noundef @.str.23, i32 noundef %9, i32 noundef %12)
  %14 = icmp ne i32 %13, 0
  br i1 %14, label %16, label %15

15:                                               ; preds = %2
  store i32 0, ptr %3, align 4
  store i32 1, ptr %7, align 4
  br label %64

16:                                               ; preds = %2
  %17 = load i64, ptr %5, align 8, !tbaa !19
  %18 = icmp sge i64 %17, 0
  br i1 %18, label %19, label %20

19:                                               ; preds = %16
  store i32 1, ptr %3, align 4
  store i32 1, ptr %7, align 4
  br label %64

20:                                               ; preds = %16
  %21 = getelementptr inbounds nuw %struct.ossl_quic_frame_stream_st, ptr %6, i32 0, i32 2
  %22 = load i64, ptr %21, align 8, !tbaa !58
  %23 = call i32 @test_uint64_t_le(ptr noundef @.str.5, i32 noundef 422, ptr noundef @.str.56, ptr noundef @.str.32, i64 noundef %22, i64 noundef -1)
  %24 = icmp ne i32 %23, 0
  br i1 %24, label %26, label %25

25:                                               ; preds = %20
  store i32 0, ptr %3, align 4
  store i32 1, ptr %7, align 4
  br label %64

26:                                               ; preds = %20
  %27 = getelementptr inbounds nuw %struct.ossl_quic_frame_stream_st, ptr %6, i32 0, i32 3
  %28 = load ptr, ptr %27, align 8, !tbaa !60
  %29 = getelementptr inbounds nuw %struct.ossl_quic_frame_stream_st, ptr %6, i32 0, i32 2
  %30 = load i64, ptr %29, align 8, !tbaa !58
  %31 = call i32 @test_mem_eq(ptr noundef @.str.5, i32 noundef 426, ptr noundef @.str.57, ptr noundef @.str.73, ptr noundef %28, i64 noundef %30, ptr noundef @encode_case_9_data, i64 noundef 5)
  %32 = icmp ne i32 %31, 0
  br i1 %32, label %34, label %33

33:                                               ; preds = %26
  store i32 0, ptr %3, align 4
  store i32 1, ptr %7, align 4
  br label %64

34:                                               ; preds = %26
  %35 = getelementptr inbounds nuw %struct.ossl_quic_frame_stream_st, ptr %6, i32 0, i32 0
  %36 = load i64, ptr %35, align 8, !tbaa !61
  %37 = call i32 @test_uint64_t_eq(ptr noundef @.str.5, i32 noundef 429, ptr noundef @.str.67, ptr noundef @.str.55, i64 noundef %36, i64 noundef 4660)
  %38 = icmp ne i32 %37, 0
  br i1 %38, label %40, label %39

39:                                               ; preds = %34
  store i32 0, ptr %3, align 4
  store i32 1, ptr %7, align 4
  br label %64

40:                                               ; preds = %34
  %41 = getelementptr inbounds nuw %struct.ossl_quic_frame_stream_st, ptr %6, i32 0, i32 1
  %42 = load i64, ptr %41, align 8, !tbaa !62
  %43 = call i32 @test_uint64_t_eq(ptr noundef @.str.5, i32 noundef 432, ptr noundef @.str.54, ptr noundef @.str.74, i64 noundef %42, i64 noundef 57)
  %44 = icmp ne i32 %43, 0
  br i1 %44, label %46, label %45

45:                                               ; preds = %40
  store i32 0, ptr %3, align 4
  store i32 1, ptr %7, align 4
  br label %64

46:                                               ; preds = %40
  %47 = getelementptr inbounds nuw %struct.ossl_quic_frame_stream_st, ptr %6, i32 0, i32 4
  %48 = load i8, ptr %47, align 8
  %49 = and i8 %48, 1
  %50 = zext i8 %49 to i32
  %51 = call i32 @test_int_eq(ptr noundef @.str.5, i32 noundef 435, ptr noundef @.str.69, ptr noundef @.str.8, i32 noundef %50, i32 noundef 1)
  %52 = icmp ne i32 %51, 0
  br i1 %52, label %54, label %53

53:                                               ; preds = %46
  store i32 0, ptr %3, align 4
  store i32 1, ptr %7, align 4
  br label %64

54:                                               ; preds = %46
  %55 = getelementptr inbounds nuw %struct.ossl_quic_frame_stream_st, ptr %6, i32 0, i32 4
  %56 = load i8, ptr %55, align 8
  %57 = lshr i8 %56, 1
  %58 = and i8 %57, 1
  %59 = zext i8 %58 to i32
  %60 = call i32 @test_int_eq(ptr noundef @.str.5, i32 noundef 438, ptr noundef @.str.70, ptr noundef @.str.8, i32 noundef %59, i32 noundef 1)
  %61 = icmp ne i32 %60, 0
  br i1 %61, label %63, label %62

62:                                               ; preds = %54
  store i32 0, ptr %3, align 4
  store i32 1, ptr %7, align 4
  br label %64

63:                                               ; preds = %54
  store i32 1, ptr %3, align 4
  store i32 1, ptr %7, align 4
  br label %64

64:                                               ; preds = %63, %62, %53, %45, %39, %33, %25, %19, %15
  call void @llvm.lifetime.end.p0(i64 40, ptr %6) #5
  %65 = load i32, ptr %3, align 4
  ret i32 %65
}