; Function Attrs: nounwind uwtable
define internal range(i32 0, 2) i32 @encode_case_9_dec(ptr noundef %0, i64 noundef %1) #0 {
  %3 = alloca %struct.ossl_quic_frame_stream_st, align 8
  call void @llvm.lifetime.start.p0(i64 40, ptr nonnull %3) #4
  call void @llvm.memset.p0.i64(ptr noundef nonnull align 8 dereferenceable(40) %3, i8 0, i64 40, i1 false)
  %4 = call i32 @ossl_quic_wire_decode_frame_stream(ptr noundef %0, i32 noundef 0, ptr noundef nonnull %3) #4
  %.lobit = lshr i64 %1, 63
  %5 = trunc nuw nsw i64 %.lobit to i32
  %6 = call i32 @test_int_eq(ptr noundef nonnull @.str.5, i32 noundef 416, ptr noundef nonnull @.str.65, ptr noundef nonnull @.str.23, i32 noundef %4, i32 noundef %5) #4
  %.not = icmp eq i32 %6, 0
  br i1 %.not, label %37, label %7

7:                                                ; preds = %2
  %8 = icmp sgt i64 %1, -1
  br i1 %8, label %37, label %9

9:                                                ; preds = %7
  %10 = getelementptr inbounds nuw i8, ptr %3, i64 16
  %11 = load i64, ptr %10, align 8, !tbaa !46
  %12 = call i32 @test_uint64_t_le(ptr noundef nonnull @.str.5, i32 noundef 422, ptr noundef nonnull @.str.56, ptr noundef nonnull @.str.32, i64 noundef %11, i64 noundef -1) #4
  %.not3 = icmp eq i32 %12, 0
  br i1 %.not3, label %37, label %13

13:                                               ; preds = %9
  %14 = getelementptr inbounds nuw i8, ptr %3, i64 24
  %15 = load ptr, ptr %14, align 8, !tbaa !48
  %16 = load i64, ptr %10, align 8, !tbaa !46
  %17 = call i32 @test_mem_eq(ptr noundef nonnull @.str.5, i32 noundef 426, ptr noundef nonnull @.str.57, ptr noundef nonnull @.str.73, ptr noundef %15, i64 noundef %16, ptr noundef nonnull @encode_case_9_data, i64 noundef 5) #4
  %.not4 = icmp eq i32 %17, 0
  br i1 %.not4, label %37, label %18

18:                                               ; preds = %13
  %19 = load i64, ptr %3, align 8, !tbaa !49
  %20 = call i32 @test_uint64_t_eq(ptr noundef nonnull @.str.5, i32 noundef 429, ptr noundef nonnull @.str.67, ptr noundef nonnull @.str.55, i64 noundef %19, i64 noundef 4660) #4
  %.not5 = icmp eq i32 %20, 0
  br i1 %.not5, label %37, label %21

21:                                               ; preds = %18
  %22 = getelementptr inbounds nuw i8, ptr %3, i64 8
  %23 = load i64, ptr %22, align 8, !tbaa !50
  %24 = call i32 @test_uint64_t_eq(ptr noundef nonnull @.str.5, i32 noundef 432, ptr noundef nonnull @.str.54, ptr noundef nonnull @.str.74, i64 noundef %23, i64 noundef 57) #4
  %.not6 = icmp eq i32 %24, 0
  br i1 %.not6, label %37, label %25

25:                                               ; preds = %21
  %26 = getelementptr inbounds nuw i8, ptr %3, i64 32
  %27 = load i8, ptr %26, align 8
  %28 = and i8 %27, 1
  %29 = zext nneg i8 %28 to i32
  %30 = call i32 @test_int_eq(ptr noundef nonnull @.str.5, i32 noundef 435, ptr noundef nonnull @.str.69, ptr noundef nonnull @.str.8, i32 noundef %29, i32 noundef 1) #4
  %.not7 = icmp eq i32 %30, 0
  br i1 %.not7, label %37, label %31

31:                                               ; preds = %25
  %32 = load i8, ptr %26, align 8
  %33 = lshr i8 %32, 1
  %34 = and i8 %33, 1
  %35 = zext nneg i8 %34 to i32
  %36 = call i32 @test_int_eq(ptr noundef nonnull @.str.5, i32 noundef 438, ptr noundef nonnull @.str.70, ptr noundef nonnull @.str.8, i32 noundef %35, i32 noundef 1) #4
  %.not8 = icmp ne i32 %36, 0
  %. = zext i1 %.not8 to i32
  br label %37

37:                                               ; preds = %31, %25, %21, %18, %13, %9, %7, %2
  %.0 = phi i32 [ 0, %2 ], [ 1, %7 ], [ 0, %9 ], [ 0, %13 ], [ 0, %18 ], [ 0, %21 ], [ 0, %25 ], [ %., %31 ]
  call void @llvm.lifetime.end.p0(i64 40, ptr nonnull %3) #4
  ret i32 %.0
}